target datalayout = "e-m:e-p270:32:32-p271:32:32-p272:64:64-i64:64-i128:128-f80:128-n8:16:32:64-S128"
target triple = "x86_64-pc-linux-gnu"

%struct.json_parse_t = type { ptr, ptr, ptr, ptr, i32 }
%struct.json_token_t = type { i32, i64, %union.anon, i64 }
%union.anon = type { ptr }

@.str.67 = private unnamed_addr constant [15 x i8] c"invalid number\00", align 1

; Function Attrs: nounwind uwtable
define internal void @json_set_token_error(ptr noundef %0, ptr noundef %1, ptr noundef %2) #0 {
  %4 = alloca ptr, align 8
  %5 = alloca ptr, align 8
  %6 = alloca ptr, align 8
  store ptr %0, ptr %4, align 8, !tbaa !15
  store ptr %1, ptr %5, align 8, !tbaa !15
  store ptr %2, ptr %6, align 8, !tbaa !11
  %7 = load ptr, ptr %4, align 8, !tbaa !15
  %8 = getelementptr inbounds nuw %struct.json_token_t, ptr %7, i32 0, i32 0
  store i32 12, ptr %8, align 8, !tbaa !28
  %9 = load ptr, ptr %5, align 8, !tbaa !15
  %10 = getelementptr inbounds nuw %struct.json_parse_t, ptr %9, i32 0, i32 1
  %11 = load ptr, ptr %10, align 8, !tbaa !25
  %12 = load ptr, ptr %5, align 8, !tbaa !15
  %13 = getelementptr inbounds nuw %struct.json_parse_t, ptr %12, i32 0, i32 0
  %14 = load ptr, ptr %13, align 8, !tbaa !23
  %15 = ptrtoint ptr %11 to i64
  %16 = ptrtoint ptr %14 to i64
  %17 = sub i64 %15, %16
  %18 = load ptr, ptr %4, align 8, !tbaa !15
  %19 = getelementptr inbounds nuw %struct.json_token_t, ptr %18, i32 0, i32 1
  store i64 %17, ptr %19, align 8, !tbaa !59
  %20 = load ptr, ptr %6, align 8, !tbaa !11
  %21 = load ptr, ptr %4, align 8, !tbaa !15
  %22 = getelementptr inbounds nuw %struct.json_token_t, ptr %21, i32 0, i32 2
  store ptr %20, ptr %22, align 8, !tbaa !26
  ret void
}

; Function Attrs: nounwind uwtable
define internal void @json_next_number_token(ptr noundef %0, ptr noundef %1) #0 {
  %3 = alloca ptr, align 8
  %4 = alloca ptr, align 8
  %5 = alloca ptr, align 8
  store ptr %0, ptr %3, align 8, !tbaa !15
  store ptr %1, ptr %4, align 8, !tbaa !15
  call void @llvm.lifetime.start.p0(i64 8, ptr %5) #9
  %6 = load ptr, ptr %4, align 8, !tbaa !15
  %7 = getelementptr inbounds nuw %struct.json_token_t, ptr %6, i32 0, i32 0
  store i32 5, ptr %7, align 8, !tbaa !28
  %8 = load ptr, ptr %3, align 8, !tbaa !15
  %9 = getelementptr inbounds nuw %struct.json_parse_t, ptr %8, i32 0, i32 1
  %10 = load ptr, ptr %9, align 8, !tbaa !25
  %11 = call double @fpconv_strtod(ptr noundef %10, ptr noundef %5)
  %12 = load ptr, ptr %4, align 8, !tbaa !15
  %13 = getelementptr inbounds nuw %struct.json_token_t, ptr %12, i32 0, i32 2
  store double %11, ptr %13, align 8, !tbaa !26
  %14 = load ptr, ptr %3, align 8, !tbaa !15
  %15 = getelementptr inbounds nuw %struct.json_parse_t, ptr %14, i32 0, i32 1
  %16 = load ptr, ptr %15, align 8, !tbaa !25
  %17 = load ptr, ptr %5, align 8, !tbaa !11
  %18 = icmp eq ptr %16, %17
  br i1 %18, label %19, label %22

19:                                               ; preds = %2
  %20 = load ptr, ptr %4, align 8, !tbaa !15
  %21 = load ptr, ptr %3, align 8, !tbaa !15
  call void @json_set_token_error(ptr noundef %20, ptr noundef %21, ptr noundef @.str.67)
  br label %26

22:                                               ; preds = %2
  %23 = load ptr, ptr %5, align 8, !tbaa !11
  %24 = load ptr, ptr %3, align 8, !tbaa !15
  %25 = getelementptr inbounds nuw %struct.json_parse_t, ptr %24, i32 0, i32 1
  store ptr %23, ptr %25, align 8, !tbaa !25
  br label %26

26:                                               ; preds = %22, %19
  call void @llvm.lifetime.end.p0(i64 8, ptr %5) #9
  ret void
}