; Function Attrs: nounwind uwtable
define internal fastcc void @json_next_number_token(ptr noundef nonnull captures(none) %0, ptr noundef nonnull writeonly captures(none) initializes((0, 4), (16, 24)) %1) unnamed_addr #0 {
  %3 = alloca ptr, align 8
  call void @llvm.lifetime.start.p0(i64 8, ptr nonnull %3) #12
  store i32 5, ptr %1, align 8, !tbaa !41
  %4 = getelementptr inbounds nuw i8, ptr %0, i64 8
  %5 = load ptr, ptr %4, align 8, !tbaa !38
  %6 = call double @fpconv_strtod(ptr noundef %5, ptr noundef nonnull %3) #12
  %7 = getelementptr inbounds nuw i8, ptr %1, i64 16
  store double %6, ptr %7, align 8, !tbaa !25
  %8 = load ptr, ptr %4, align 8, !tbaa !38
  %9 = load ptr, ptr %3, align 8, !tbaa !30
  %10 = icmp eq ptr %8, %9
  br i1 %10, label %11, label %16

11:                                               ; preds = %2
  %.val = load ptr, ptr %0, align 8, !tbaa !36
  store i32 12, ptr %1, align 8, !tbaa !41
  %12 = ptrtoint ptr %8 to i64
  %13 = ptrtoint ptr %.val to i64
  %14 = sub i64 %12, %13
  %15 = getelementptr inbounds nuw i8, ptr %1, i64 8
  store i64 %14, ptr %15, align 8, !tbaa !43
  store ptr @.str.67, ptr %7, align 8, !tbaa !25
  br label %17

16:                                               ; preds = %2
  store ptr %9, ptr %4, align 8, !tbaa !38
  br label %17

17:                                               ; preds = %16, %11
  call void @llvm.lifetime.end.p0(i64 8, ptr nonnull %3) #12
  ret void
}